target datalayout = "e-m:e-p270:32:32-p271:32:32-p272:64:64-i64:64-i128:128-f80:128-n8:16:32:64-S128"
target triple = "x86_64-pc-linux-gnu"

%struct.AVFilterContext = type { ptr, ptr, ptr, ptr, ptr, i32, ptr, ptr, i32, ptr, ptr, i32, i32, ptr, ptr, ptr, ptr, i32, ptr, i32, i32 }
%struct.TestSourceContext = type { ptr, i32, i32, i32, i32, i32, %struct.AVRational, %struct.AVRational, i64, i64, %struct.AVRational, i32, i32, ptr, ptr, i32, i32, [4 x i8], i32, %struct.FFDrawContext, %struct.FFDrawColor, [4 x i8], [4 x i8], i32, i32, i32, i32, i32, i32, i32, i32, i32, i32, i32, i32, i32, i32, i32, i32, i32, i32, i32, ptr, ptr }
%struct.AVRational = type { i32, i32 }
%struct.FFDrawContext = type { ptr, i32, i32, [4 x i32], [4 x i8], [4 x i8], i8, i8, i32, i32, i32, [3 x [3 x double]] }
%struct.FFDrawColor = type { [4 x i8], [4 x %union.anon.2] }
%union.anon.2 = type { [4 x i32] }

@.str.139 = private unnamed_addr constant [45 x i8] c"size:%dx%d rate:%d/%d duration:%f sar:%d/%d\0A\00", align 1

; Function Attrs: alwaysinline nounwind uwtable
define internal i64 @av_inv_q(i64 %0) #9 {
  %2 = alloca %struct.AVRational, align 4
  %3 = alloca %struct.AVRational, align 4
  store i64 %0, ptr %3, align 4
  %4 = getelementptr inbounds nuw %struct.AVRational, ptr %2, i32 0, i32 0
  %5 = getelementptr inbounds nuw %struct.AVRational, ptr %3, i32 0, i32 1
  %6 = load i32, ptr %5, align 4, !tbaa !44
  store i32 %6, ptr %4, align 4, !tbaa !43
  %7 = getelementptr inbounds nuw %struct.AVRational, ptr %2, i32 0, i32 1
  %8 = getelementptr inbounds nuw %struct.AVRational, ptr %3, i32 0, i32 0
  %9 = load i32, ptr %8, align 4, !tbaa !43
  store i32 %9, ptr %7, align 4, !tbaa !44
  %10 = load i64, ptr %2, align 4
  ret i64 %10
}

; Function Attrs: cold nounwind optsize uwtable
define internal i32 @init(ptr noundef %0) #0 {
  %2 = alloca ptr, align 8
  %3 = alloca ptr, align 8
  %4 = alloca %struct.AVRational, align 4
  store ptr %0, ptr %2, align 8, !tbaa !4
  call void @llvm.lifetime.start.p0(i64 8, ptr %3) #15
  %5 = load ptr, ptr %2, align 8, !tbaa !4
  %6 = getelementptr inbounds nuw %struct.AVFilterContext, ptr %5, i32 0, i32 9
  %7 = load ptr, ptr %6, align 8, !tbaa !9
  store ptr %7, ptr %3, align 8, !tbaa !22
  %8 = load ptr, ptr %3, align 8, !tbaa !22
  %9 = getelementptr inbounds nuw %struct.TestSourceContext, ptr %8, i32 0, i32 6
  call void @llvm.lifetime.start.p0(i64 8, ptr %4) #15
  %10 = load ptr, ptr %3, align 8, !tbaa !22
  %11 = getelementptr inbounds nuw %struct.TestSourceContext, ptr %10, i32 0, i32 7
  %12 = load i64, ptr %11, align 4
  %13 = call i64 @av_inv_q(i64 %12)
  store i64 %13, ptr %4, align 4
  call void @llvm.memcpy.p0.p0.i64(ptr align 4 %9, ptr align 4 %4, i64 8, i1 false), !tbaa.struct !64
  call void @llvm.lifetime.end.p0(i64 8, ptr %4) #15
  %14 = load ptr, ptr %3, align 8, !tbaa !22
  %15 = getelementptr inbounds nuw %struct.TestSourceContext, ptr %14, i32 0, i32 5
  store i32 0, ptr %15, align 8, !tbaa !65
  %16 = load ptr, ptr %3, align 8, !tbaa !22
  %17 = getelementptr inbounds nuw %struct.TestSourceContext, ptr %16, i32 0, i32 8
  store i64 0, ptr %17, align 8, !tbaa !42
  %18 = load ptr, ptr %2, align 8, !tbaa !4
  %19 = load ptr, ptr %3, align 8, !tbaa !22
  %20 = getelementptr inbounds nuw %struct.TestSourceContext, ptr %19, i32 0, i32 1
  %21 = load i32, ptr %20, align 8, !tbaa !46
  %22 = load ptr, ptr %3, align 8, !tbaa !22
  %23 = getelementptr inbounds nuw %struct.TestSourceContext, ptr %22, i32 0, i32 2
  %24 = load i32, ptr %23, align 4, !tbaa !47
  %25 = load ptr, ptr %3, align 8, !tbaa !22
  %26 = getelementptr inbounds nuw %struct.TestSourceContext, ptr %25, i32 0, i32 7
  %27 = getelementptr inbounds nuw %struct.AVRational, ptr %26, i32 0, i32 0
  %28 = load i32, ptr %27, align 4, !tbaa !74
  %29 = load ptr, ptr %3, align 8, !tbaa !22
  %30 = getelementptr inbounds nuw %struct.TestSourceContext, ptr %29, i32 0, i32 7
  %31 = getelementptr inbounds nuw %struct.AVRational, ptr %30, i32 0, i32 1
  %32 = load i32, ptr %31, align 4, !tbaa !75
  %33 = load ptr, ptr %3, align 8, !tbaa !22
  %34 = getelementptr inbounds nuw %struct.TestSourceContext, ptr %33, i32 0, i32 9
  %35 = load i64, ptr %34, align 8, !tbaa !41
  %36 = icmp slt i64 %35, 0
  br i1 %36, label %37, label %38

37:                                               ; preds = %1
  br label %44

38:                                               ; preds = %1
  %39 = load ptr, ptr %3, align 8, !tbaa !22
  %40 = getelementptr inbounds nuw %struct.TestSourceContext, ptr %39, i32 0, i32 9
  %41 = load i64, ptr %40, align 8, !tbaa !41
  %42 = sitofp i64 %41 to double
  %43 = fdiv nsz double %42, 1.000000e+06
  br label %44

44:                                               ; preds = %38, %37
  %45 = phi nsz double [ -1.000000e+00, %37 ], [ %43, %38 ]
  %46 = load ptr, ptr %3, align 8, !tbaa !22
  %47 = getelementptr inbounds nuw %struct.TestSourceContext, ptr %46, i32 0, i32 10
  %48 = getelementptr inbounds nuw %struct.AVRational, ptr %47, i32 0, i32 0
  %49 = load i32, ptr %48, align 8, !tbaa !76
  %50 = load ptr, ptr %3, align 8, !tbaa !22
  %51 = getelementptr inbounds nuw %struct.TestSourceContext, ptr %50, i32 0, i32 10
  %52 = getelementptr inbounds nuw %struct.AVRational, ptr %51, i32 0, i32 1
  %53 = load i32, ptr %52, align 4, !tbaa !77
  call void (ptr, i32, ptr, ...) @av_log(ptr noundef %18, i32 noundef 40, ptr noundef @.str.139, i32 noundef %21, i32 noundef %24, i32 noundef %28, i32 noundef %32, double noundef %45, i32 noundef %49, i32 noundef %53)
  call void @llvm.lifetime.end.p0(i64 8, ptr %3) #15
  ret i32 0
}