; Function Attrs: cold nounwind optsize uwtable
define internal noundef i32 @init(ptr noundef %0) #0 {
  %2 = getelementptr inbounds nuw i8, ptr %0, i64 72
  %3 = load ptr, ptr %2, align 8, !tbaa !4
  %4 = getelementptr inbounds nuw i8, ptr %3, i64 28
  %5 = getelementptr inbounds nuw i8, ptr %3, i64 36
  %6 = load i64, ptr %5, align 4
  %.sroa.01.0.insert.insert.i = tail call i64 @llvm.fshl.i64(i64 %6, i64 %6, i64 32)
  store i64 %.sroa.01.0.insert.insert.i, ptr %4, align 4
  %7 = getelementptr inbounds nuw i8, ptr %3, i64 24
  store i32 0, ptr %7, align 8, !tbaa !54
  %8 = getelementptr inbounds nuw i8, ptr %3, i64 48
  store i64 0, ptr %8, align 8, !tbaa !34
  %9 = getelementptr inbounds nuw i8, ptr %3, i64 8
  %10 = load i32, ptr %9, align 8, !tbaa !36
  %11 = getelementptr inbounds nuw i8, ptr %3, i64 12
  %12 = load i32, ptr %11, align 4, !tbaa !37
  %13 = trunc i64 %6 to i32
  %14 = lshr i64 %6, 32
  %15 = trunc nuw i64 %14 to i32
  %16 = getelementptr inbounds nuw i8, ptr %3, i64 56
  %17 = load i64, ptr %16, align 8, !tbaa !33
  %18 = icmp slt i64 %17, 0
  %19 = uitofp nneg i64 %17 to double
  %20 = fdiv nsz double %19, 1.000000e+06
  %21 = select nsz i1 %18, double -1.000000e+00, double %20
  %22 = getelementptr inbounds nuw i8, ptr %3, i64 64
  %23 = load i32, ptr %22, align 8, !tbaa !59
  %24 = getelementptr inbounds nuw i8, ptr %3, i64 68
  %25 = load i32, ptr %24, align 4, !tbaa !60
  tail call void (ptr, i32, ptr, ...) @av_log(ptr noundef %0, i32 noundef 40, ptr noundef nonnull @.str.139, i32 noundef %10, i32 noundef %12, i32 noundef %13, i32 noundef %15, double noundef %21, i32 noundef %23, i32 noundef %25) #20
  ret i32 0
}